target datalayout = "e-m:e-p270:32:32-p271:32:32-p272:64:64-i64:64-i128:128-f80:128-n8:16:32:64-S128"
target triple = "x86_64-pc-linux-gnu"

%struct.config_generic = type { ptr, i32, i32, ptr, ptr, i32, i32, i32, i32, i32, i32, i32, i32, i32, ptr, ptr, %struct.dlist_node, %struct.slist_node, %struct.slist_node, ptr, ptr, i32 }
%struct.dlist_node = type { ptr, ptr }
%struct.slist_node = type { ptr }
%struct.config_int = type { %struct.config_generic, ptr, i32, i32, i32, ptr, ptr, ptr, i32, ptr }

@.str.3 = private unnamed_addr constant [6 x i8] c"guc.c\00", align 1
@.str.81 = private unnamed_addr constant [3 x i8] c"%s\00", align 1
@GUC_check_errcode_value = internal global i32 0, align 4
@GUC_check_errmsg_string = dso_local global ptr null, align 8
@GUC_check_errdetail_string = dso_local global ptr null, align 8
@GUC_check_errhint_string = dso_local global ptr null, align 8
@.str.144 = private unnamed_addr constant [37 x i8] c"invalid value for parameter \22%s\22: %d\00", align 1
@__func__.call_int_check_hook = private unnamed_addr constant [20 x i8] c"call_int_check_hook\00", align 1

; Function Attrs: nounwind uwtable
define internal zeroext i1 @call_int_check_hook(ptr noundef %0, ptr noundef %1, ptr noundef %2, i32 noundef %3, i32 noundef %4) #0 {
  %6 = alloca i1, align 1
  %7 = alloca ptr, align 8
  %8 = alloca ptr, align 8
  %9 = alloca ptr, align 8
  %10 = alloca i32, align 4
  %11 = alloca i32, align 4
  store ptr %0, ptr %7, align 8
  store ptr %1, ptr %8, align 8
  store ptr %2, ptr %9, align 8
  store i32 %3, ptr %10, align 4
  store i32 %4, ptr %11, align 4
  %12 = load ptr, ptr %7, align 8
  %13 = getelementptr inbounds nuw %struct.config_int, ptr %12, i32 0, i32 5
  %14 = load ptr, ptr %13, align 8
  %15 = icmp ne ptr %14, null
  br i1 %15, label %17, label %16

16:                                               ; preds = %5
  store i1 true, ptr %6, align 1
  br label %79

17:                                               ; preds = %5
  store i32 50856066, ptr @GUC_check_errcode_value, align 4
  store ptr null, ptr @GUC_check_errmsg_string, align 8
  store ptr null, ptr @GUC_check_errdetail_string, align 8
  store ptr null, ptr @GUC_check_errhint_string, align 8
  %18 = load ptr, ptr %7, align 8
  %19 = getelementptr inbounds nuw %struct.config_int, ptr %18, i32 0, i32 5
  %20 = load ptr, ptr %19, align 8
  %21 = load ptr, ptr %8, align 8
  %22 = load ptr, ptr %9, align 8
  %23 = load i32, ptr %10, align 4
  %24 = call zeroext i1 %20(ptr noundef %21, ptr noundef %22, i32 noundef %23)
  br i1 %24, label %78, label %25

25:                                               ; preds = %17
  br label %26

26:                                               ; preds = %25
  %27 = load i32, ptr %11, align 4
  %28 = call i1 @llvm.is.constant.i32(i32 %27)
  br i1 %28, label %29, label %35

29:                                               ; preds = %26
  %30 = load i32, ptr %11, align 4
  %31 = icmp sge i32 %30, 21
  br i1 %31, label %32, label %35

32:                                               ; preds = %29
  %33 = load i32, ptr %11, align 4
  %34 = call zeroext i1 @errstart_cold(i32 noundef %33, ptr noundef null) #18
  br i1 %34, label %38, label %69

35:                                               ; preds = %29, %26
  %36 = load i32, ptr %11, align 4
  %37 = call zeroext i1 @errstart(i32 noundef %36, ptr noundef null)
  br i1 %37, label %38, label %69

38:                                               ; preds = %35, %32
  %39 = load i32, ptr @GUC_check_errcode_value, align 4
  %40 = call i32 @errcode(i32 noundef %39)
  %41 = load ptr, ptr @GUC_check_errmsg_string, align 8
  %42 = icmp ne ptr %41, null
  br i1 %42, label %43, label %46

43:                                               ; preds = %38
  %44 = load ptr, ptr @GUC_check_errmsg_string, align 8
  %45 = call i32 (ptr, ...) @errmsg_internal(ptr noundef @.str.81, ptr noundef %44)
  br label %54

46:                                               ; preds = %38
  %47 = load ptr, ptr %7, align 8
  %48 = getelementptr inbounds nuw %struct.config_int, ptr %47, i32 0, i32 0
  %49 = getelementptr inbounds nuw %struct.config_generic, ptr %48, i32 0, i32 0
  %50 = load ptr, ptr %49, align 8
  %51 = load ptr, ptr %8, align 8
  %52 = load i32, ptr %51, align 4
  %53 = call i32 (ptr, ...) @errmsg(ptr noundef @.str.144, ptr noundef %50, i32 noundef %52)
  br label %54

54:                                               ; preds = %46, %43
  %55 = load ptr, ptr @GUC_check_errdetail_string, align 8
  %56 = icmp ne ptr %55, null
  br i1 %56, label %57, label %60

57:                                               ; preds = %54
  %58 = load ptr, ptr @GUC_check_errdetail_string, align 8
  %59 = call i32 (ptr, ...) @errdetail_internal(ptr noundef @.str.81, ptr noundef %58)
  br label %61

60:                                               ; preds = %54
  br label %61

61:                                               ; preds = %60, %57
  %62 = load ptr, ptr @GUC_check_errhint_string, align 8
  %63 = icmp ne ptr %62, null
  br i1 %63, label %64, label %67

64:                                               ; preds = %61
  %65 = load ptr, ptr @GUC_check_errhint_string, align 8
  %66 = call i32 (ptr, ...) @errhint(ptr noundef @.str.81, ptr noundef %65)
  br label %68

67:                                               ; preds = %61
  br label %68

68:                                               ; preds = %67, %64
  call void @errfinish(ptr noundef @.str.3, i32 noundef 6856, ptr noundef @__func__.call_int_check_hook)
  br label %69

69:                                               ; preds = %68, %35, %32
  %70 = load i32, ptr %11, align 4
  %71 = call i1 @llvm.is.constant.i32(i32 %70)
  br i1 %71, label %72, label %76

72:                                               ; preds = %69
  %73 = load i32, ptr %11, align 4
  %74 = icmp sge i32 %73, 21
  br i1 %74, label %75, label %76

75:                                               ; preds = %72
  unreachable

76:                                               ; preds = %72, %69
  br label %77

77:                                               ; preds = %76
  call void @FlushErrorState()
  store i1 false, ptr %6, align 1
  br label %79

78:                                               ; preds = %17
  store i1 true, ptr %6, align 1
  br label %79

79:                                               ; preds = %78, %77, %16
  %80 = load i1, ptr %6, align 1
  ret i1 %80
}