; Function Attrs: nounwind uwtable
define internal fastcc noundef zeroext i1 @call_int_check_hook(ptr noundef readonly captures(none) %0, ptr noundef nonnull %1, ptr noundef nonnull %2, i32 noundef %3, i32 noundef range(i32 1, 0) %4) unnamed_addr #0 {
  %6 = getelementptr inbounds nuw i8, ptr %0, i64 168
  %7 = load ptr, ptr %6, align 8
  %.not = icmp eq ptr %7, null
  br i1 %.not, label %32, label %8

8:                                                ; preds = %5
  store i32 50856066, ptr @GUC_check_errcode_value, align 4
  store ptr null, ptr @GUC_check_errmsg_string, align 8
  store ptr null, ptr @GUC_check_errdetail_string, align 8
  store ptr null, ptr @GUC_check_errhint_string, align 8
  %9 = tail call zeroext i1 %7(ptr noundef nonnull %1, ptr noundef nonnull %2, i32 noundef %3) #29
  br i1 %9, label %32, label %10

10:                                               ; preds = %8
  %11 = tail call zeroext i1 @errstart(i32 noundef %4, ptr noundef null) #29
  br i1 %11, label %12, label %31

12:                                               ; preds = %10
  %13 = load i32, ptr @GUC_check_errcode_value, align 4
  %14 = tail call i32 @errcode(i32 noundef %13) #29
  %15 = load ptr, ptr @GUC_check_errmsg_string, align 8
  %.not20 = icmp eq ptr %15, null
  br i1 %.not20, label %18, label %16

16:                                               ; preds = %12
  %17 = tail call i32 (ptr, ...) @errmsg_internal(ptr noundef nonnull @.str.81, ptr noundef nonnull %15) #29
  br label %22

18:                                               ; preds = %12
  %19 = load ptr, ptr %0, align 8
  %20 = load i32, ptr %1, align 4
  %21 = tail call i32 (ptr, ...) @errmsg(ptr noundef nonnull @.str.144, ptr noundef %19, i32 noundef %20) #29
  br label %22

22:                                               ; preds = %18, %16
  %23 = load ptr, ptr @GUC_check_errdetail_string, align 8
  %.not21 = icmp eq ptr %23, null
  br i1 %.not21, label %26, label %24

24:                                               ; preds = %22
  %25 = tail call i32 (ptr, ...) @errdetail_internal(ptr noundef nonnull @.str.81, ptr noundef nonnull %23) #29
  br label %26

26:                                               ; preds = %22, %24
  %27 = load ptr, ptr @GUC_check_errhint_string, align 8
  %.not22 = icmp eq ptr %27, null
  br i1 %.not22, label %30, label %28

28:                                               ; preds = %26
  %29 = tail call i32 (ptr, ...) @errhint(ptr noundef nonnull @.str.81, ptr noundef nonnull %27) #29
  br label %30

30:                                               ; preds = %26, %28
  tail call void @errfinish(ptr noundef nonnull @.str.3, i32 noundef 6856, ptr noundef nonnull @__func__.call_int_check_hook) #29
  br label %31

31:                                               ; preds = %30, %10
  tail call void @FlushErrorState() #29
  br label %32

32:                                               ; preds = %8, %5, %31
  %.0 = phi i1 [ false, %31 ], [ true, %5 ], [ true, %8 ]
  ret i1 %.0
}